; Function Attrs: mustprogress uwtable
define internal void @_ZN4LuauL8fnVisitRIRNS_26TypePackRehydrationVisitorEPNS_11AstTypePackEKNS_15BlockedTypePackEEEvRT_RT0_PNSt11conditionalIXsr3stdE10is_const_vIT1_EEKvvE4typeE(ptr noundef nonnull readonly align 8 captures(none) dereferenceable(24) %0, ptr noundef nonnull writeonly align 8 captures(none) dereferenceable(8) initializes((0, 8)) %1, ptr readnone captures(none) %2) #2 {
  %4 = alloca %"struct.Luau::Location", align 4
  %5 = load ptr, ptr %0, align 8, !tbaa !25
  call void @llvm.lifetime.start.p0(i64 16, ptr nonnull %4) #21
  call void @llvm.memset.p0.i64(ptr noundef nonnull align 4 dereferenceable(16) %4, i8 0, i64 16, i1 false)
  %6 = tail call noundef ptr @_ZN4Luau9Allocator8allocateEm(ptr noundef nonnull align 8 dereferenceable(16) %5, i64 noundef 40)
  call void @_ZN4Luau18AstTypePackGenericC1ERKNS_8LocationENS_7AstNameE(ptr noundef nonnull align 8 dereferenceable(40) %6, ptr noundef nonnull align 4 dereferenceable(16) %4, ptr nonnull @.str.65)
  call void @llvm.lifetime.end.p0(i64 16, ptr nonnull %4) #21
  store ptr %6, ptr %1, align 8, !tbaa !33
  ret void
}